target datalayout = "e-m:e-p270:32:32-p271:32:32-p272:64:64-i64:64-i128:128-f80:128-n8:16:32:64-S128"
target triple = "x86_64-pc-linux-gnu"

%struct.diff_options = type { ptr, ptr, i32, i32, ptr, i32, ptr, i64, i64, ptr, ptr, ptr, ptr, %struct.diff_flags, i32, i32, i32, i32, i32, i32, i32, i32, i32, i32, i32, i32, i32, i32, i32, i32, i32, i32, i32, i32, i32, i32, ptr, i32, ptr, i32, i32, ptr, i64, i64, i32, i32, i32, i32, ptr, i32, i32, ptr, i32, i32, ptr, ptr, i32, [3 x i8], %struct.pathspec, ptr, ptr, ptr, ptr, ptr, ptr, ptr, ptr, i32, ptr, i32, i32, ptr, ptr, i32 }
%struct.diff_flags = type { i32, i32, i32, i32, i32, i32, i32, i32, i32, i32, i32, i32, i32, i32, i32, i32, i32, i32, i32, i32, i32, i32, i32, i32, i32, i32, i32, i32, i32, i32, i32, i32, i32, i32, i32 }
%struct.pathspec = type { i32, i8, i32, i32, ptr }
%struct.diffgrep_cb = type { ptr, i32 }
%struct.s_xpparam = type { i64, ptr, i64, ptr, i64 }
%struct.s_xdemitconf = type { i64, i64, i64, ptr, ptr, ptr }

; Function Attrs: nounwind uwtable
define internal i32 @diff_grep(ptr noundef %0, ptr noundef %1, ptr noundef %2, ptr noundef %3, ptr noundef %4) #0 {
  %6 = alloca i32, align 4
  %7 = alloca ptr, align 8
  %8 = alloca ptr, align 8
  %9 = alloca ptr, align 8
  %10 = alloca ptr, align 8
  %11 = alloca ptr, align 8
  %12 = alloca %struct.diffgrep_cb, align 8
  %13 = alloca %struct.s_xpparam, align 8
  %14 = alloca %struct.s_xdemitconf, align 8
  %15 = alloca i32, align 4
  %16 = alloca i32, align 4
  store ptr %0, ptr %7, align 8, !tbaa !35
  store ptr %1, ptr %8, align 8, !tbaa !35
  store ptr %2, ptr %9, align 8, !tbaa !4
  store ptr %3, ptr %10, align 8, !tbaa !27
  store ptr %4, ptr %11, align 8, !tbaa !29
  call void @llvm.lifetime.start.p0(i64 16, ptr %12) #9
  call void @llvm.lifetime.start.p0(i64 40, ptr %13) #9
  call void @llvm.lifetime.start.p0(i64 48, ptr %14) #9
  call void @llvm.lifetime.start.p0(i64 4, ptr %15) #9
  call void @llvm.memset.p0.i64(ptr align 8 %13, i8 0, i64 40, i1 false)
  call void @llvm.memset.p0.i64(ptr align 8 %14, i8 0, i64 48, i1 false)
  %17 = load ptr, ptr %10, align 8, !tbaa !27
  %18 = getelementptr inbounds nuw %struct.diffgrep_cb, ptr %12, i32 0, i32 0
  store ptr %17, ptr %18, align 8, !tbaa !37
  %19 = getelementptr inbounds nuw %struct.diffgrep_cb, ptr %12, i32 0, i32 1
  store i32 0, ptr %19, align 8, !tbaa !39
  %20 = getelementptr inbounds nuw %struct.s_xdemitconf, ptr %14, i32 0, i32 2
  store i64 2, ptr %20, align 8, !tbaa !40
  %21 = load ptr, ptr %9, align 8, !tbaa !4
  %22 = getelementptr inbounds nuw %struct.diff_options, ptr %21, i32 0, i32 17
  %23 = load i32, ptr %22, align 8, !tbaa !42
  %24 = sext i32 %23 to i64
  %25 = getelementptr inbounds nuw %struct.s_xdemitconf, ptr %14, i32 0, i32 0
  store i64 %24, ptr %25, align 8, !tbaa !43
  %26 = load ptr, ptr %9, align 8, !tbaa !4
  %27 = getelementptr inbounds nuw %struct.diff_options, ptr %26, i32 0, i32 18
  %28 = load i32, ptr %27, align 4, !tbaa !44
  %29 = sext i32 %28 to i64
  %30 = getelementptr inbounds nuw %struct.s_xdemitconf, ptr %14, i32 0, i32 1
  store i64 %29, ptr %30, align 8, !tbaa !45
  %31 = load ptr, ptr %7, align 8, !tbaa !35
  %32 = load ptr, ptr %8, align 8, !tbaa !35
  %33 = call i32 @xdi_diff_outf(ptr noundef %31, ptr noundef %32, ptr noundef null, ptr noundef @diffgrep_consume, ptr noundef %12, ptr noundef %13, ptr noundef %14)
  store i32 %33, ptr %15, align 4, !tbaa !26
  %34 = getelementptr inbounds nuw %struct.diffgrep_cb, ptr %12, i32 0, i32 1
  %35 = load i32, ptr %34, align 8, !tbaa !39
  %36 = icmp ne i32 %35, 0
  br i1 %36, label %37, label %38

37:                                               ; preds = %5
  store i32 1, ptr %6, align 4
  store i32 1, ptr %16, align 4
  br label %44

38:                                               ; preds = %5
  %39 = load i32, ptr %15, align 4, !tbaa !26
  %40 = icmp ne i32 %39, 0
  br i1 %40, label %41, label %43

41:                                               ; preds = %38
  %42 = load i32, ptr %15, align 4, !tbaa !26
  store i32 %42, ptr %6, align 4
  store i32 1, ptr %16, align 4
  br label %44

43:                                               ; preds = %38
  store i32 0, ptr %6, align 4
  store i32 1, ptr %16, align 4
  br label %44

44:                                               ; preds = %43, %41, %37
  call void @llvm.lifetime.end.p0(i64 4, ptr %15) #9
  call void @llvm.lifetime.end.p0(i64 48, ptr %14) #9
  call void @llvm.lifetime.end.p0(i64 40, ptr %13) #9
  call void @llvm.lifetime.end.p0(i64 16, ptr %12) #9
  %45 = load i32, ptr %6, align 4
  ret i32 %45
}