; Function Attrs: nounwind uwtable
define internal i32 @diff_grep(ptr noundef %0, ptr noundef %1, ptr noundef readonly captures(none) %2, ptr noundef %3, ptr readnone captures(none) %4) #0 {
  %6 = alloca %struct.diffgrep_cb, align 8
  %7 = alloca %struct.s_xpparam, align 8
  %8 = alloca %struct.s_xdemitconf, align 8
  call void @llvm.lifetime.start.p0(i64 16, ptr nonnull %6) #8
  call void @llvm.lifetime.start.p0(i64 40, ptr nonnull %7) #8
  call void @llvm.lifetime.start.p0(i64 48, ptr nonnull %8) #8
  call void @llvm.memset.p0.i64(ptr noundef nonnull align 8 dereferenceable(40) %7, i8 0, i64 40, i1 false)
  %9 = getelementptr inbounds nuw i8, ptr %8, i64 24
  call void @llvm.memset.p0.i64(ptr noundef nonnull align 8 dereferenceable(48) %9, i8 0, i64 24, i1 false)
  store ptr %3, ptr %6, align 8, !tbaa !39
  %10 = getelementptr inbounds nuw i8, ptr %6, i64 8
  store i32 0, ptr %10, align 8, !tbaa !42
  %11 = getelementptr inbounds nuw i8, ptr %8, i64 16
  store i64 2, ptr %11, align 8, !tbaa !43
  %12 = getelementptr inbounds nuw i8, ptr %2, i64 248
  %13 = load i32, ptr %12, align 8, !tbaa !45
  %14 = sext i32 %13 to i64
  store i64 %14, ptr %8, align 8, !tbaa !46
  %15 = getelementptr inbounds nuw i8, ptr %2, i64 252
  %16 = load i32, ptr %15, align 4, !tbaa !47
  %17 = sext i32 %16 to i64
  %18 = getelementptr inbounds nuw i8, ptr %8, i64 8
  store i64 %17, ptr %18, align 8, !tbaa !48
  %19 = call i32 @xdi_diff_outf(ptr noundef %0, ptr noundef %1, ptr noundef null, ptr noundef nonnull @diffgrep_consume, ptr noundef nonnull %6, ptr noundef nonnull %7, ptr noundef nonnull %8) #8
  %20 = load i32, ptr %10, align 8, !tbaa !42
  %.not = icmp eq i32 %20, 0
  %.0 = select i1 %.not, i32 %19, i32 1
  call void @llvm.lifetime.end.p0(i64 48, ptr nonnull %8) #8
  call void @llvm.lifetime.end.p0(i64 40, ptr nonnull %7) #8
  call void @llvm.lifetime.end.p0(i64 16, ptr nonnull %6) #8
  ret i32 %.0
}